; Function Attrs: nounwind uwtable
define dso_local void @list_insert(ptr noundef readonly captures(none) %0, ptr noundef %1) #0 {
  %3 = getelementptr inbounds nuw i8, ptr %0, i64 8
  %4 = load ptr, ptr %3, align 8
  %5 = getelementptr inbounds nuw i8, ptr %4, i64 40
  %6 = tail call i32 @pthread_rwlock_wrlock(ptr noundef nonnull %5) #9
  %.not = icmp eq i32 %6, 0
  br i1 %.not, label %9, label %7

7:                                                ; preds = %2
  %8 = tail call ptr @__errno_location() #10
  store i32 %6, ptr %8, align 4
  tail call void (ptr, ...) @fatal_abort(ptr noundef nonnull @.str.2, ptr noundef nonnull @__func__.list_insert) #11
  unreachable

9:                                                ; preds = %2
  %10 = load ptr, ptr %3, align 8
  %11 = getelementptr inbounds nuw i8, ptr %0, i64 24
  %12 = load ptr, ptr %11, align 8
  %13 = getelementptr inbounds nuw i8, ptr %10, i64 96
  %14 = load ptr, ptr %13, align 8
  %.not.i = icmp eq ptr %14, null
  br i1 %.not.i, label %15, label %.loopexit.i

15:                                               ; preds = %9
  %16 = tail call ptr @slurm_xcalloc(i64 noundef 247, i64 noundef 16, i1 noundef zeroext true, i1 noundef zeroext false, ptr noundef nonnull @.str, i32 noundef 972, ptr noundef nonnull @__func__._list_node_create) #9
  %17 = getelementptr inbounds nuw i8, ptr %10, i64 104
  %18 = load ptr, ptr %17, align 8
  %19 = getelementptr inbounds nuw i8, ptr %16, i64 8
  store ptr %18, ptr %19, align 8
  store ptr %16, ptr %17, align 8
  %20 = getelementptr inbounds nuw i8, ptr %16, i64 16
  store ptr %20, ptr %13, align 8
  br label %21

21:                                               ; preds = %21, %15
  %indvars.iv.i = phi i64 [ 1, %15 ], [ %indvars.iv.next.i, %21 ]
  %indvars.iv.next.i = add nuw nsw i64 %indvars.iv.i, 1
  %22 = getelementptr inbounds nuw %struct.listNode, ptr %16, i64 %indvars.iv.next.i
  %23 = getelementptr inbounds nuw %struct.listNode, ptr %16, i64 %indvars.iv.i, i32 1
  store ptr %22, ptr %23, align 8
  %exitcond.not.i = icmp eq i64 %indvars.iv.next.i, 246
  br i1 %exitcond.not.i, label %.loopexit.loopexit.i, label %21, !llvm.loop !14

.loopexit.loopexit.i:                             ; preds = %21
  %.pre.i = load ptr, ptr %13, align 8
  br label %.loopexit.i

.loopexit.i:                                      ; preds = %.loopexit.loopexit.i, %9
  %24 = phi ptr [ %.pre.i, %.loopexit.loopexit.i ], [ %14, %9 ]
  %25 = getelementptr inbounds nuw i8, ptr %24, i64 8
  %26 = load ptr, ptr %25, align 8
  store ptr %26, ptr %13, align 8
  store ptr %1, ptr %24, align 8
  %27 = load ptr, ptr %12, align 8
  store ptr %27, ptr %25, align 8
  %.not36.i = icmp eq ptr %27, null
  br i1 %.not36.i, label %28, label %30

28:                                               ; preds = %.loopexit.i
  %29 = getelementptr inbounds nuw i8, ptr %10, i64 16
  store ptr %25, ptr %29, align 8
  br label %30

30:                                               ; preds = %28, %.loopexit.i
  store ptr %24, ptr %12, align 8
  %31 = getelementptr inbounds nuw i8, ptr %10, i64 4
  %32 = load i32, ptr %31, align 4
  %33 = add nsw i32 %32, 1
  store i32 %33, ptr %31, align 4
  %34 = getelementptr inbounds nuw i8, ptr %10, i64 24
  %.03539.i = load ptr, ptr %34, align 8
  %.not3740.i = icmp eq ptr %.03539.i, null
  br i1 %.not3740.i, label %_list_node_create.exit, label %.lr.ph.i

.lr.ph.i:                                         ; preds = %30, %45
  %.03541.i = phi ptr [ %.035.i, %45 ], [ %.03539.i, %30 ]
  %35 = getelementptr inbounds nuw i8, ptr %.03541.i, i64 24
  %36 = load ptr, ptr %35, align 8
  %37 = icmp eq ptr %36, %12
  br i1 %37, label %38, label %39

38:                                               ; preds = %.lr.ph.i
  store ptr %25, ptr %35, align 8
  br label %45

39:                                               ; preds = %.lr.ph.i
  %40 = getelementptr inbounds nuw i8, ptr %.03541.i, i64 16
  %41 = load ptr, ptr %40, align 8
  %42 = load ptr, ptr %25, align 8
  %43 = icmp eq ptr %41, %42
  br i1 %43, label %44, label %45

44:                                               ; preds = %39
  store ptr %24, ptr %40, align 8
  br label %45

45:                                               ; preds = %44, %39, %38
  %46 = getelementptr inbounds nuw i8, ptr %.03541.i, i64 32
  %.035.i = load ptr, ptr %46, align 8
  %.not37.i = icmp eq ptr %.035.i, null
  br i1 %.not37.i, label %_list_node_create.exit, label %.lr.ph.i, !llvm.loop !15

_list_node_create.exit:                           ; preds = %45, %30
  %47 = load ptr, ptr %3, align 8
  %48 = getelementptr inbounds nuw i8, ptr %47, i64 40
  %49 = tail call i32 @pthread_rwlock_unlock(ptr noundef nonnull %48) #9
  %.not9 = icmp eq i32 %49, 0
  br i1 %.not9, label %52, label %50

50:                                               ; preds = %_list_node_create.exit
  %51 = tail call ptr @__errno_location() #10
  store i32 %49, ptr %51, align 4
  tail call void (ptr, ...) @fatal_abort(ptr noundef nonnull @.str.3, ptr noundef nonnull @__func__.list_insert) #11
  unreachable

52:                                               ; preds = %_list_node_create.exit
  ret void
}